target datalayout = "e-m:e-p270:32:32-p271:32:32-p272:64:64-i64:64-i128:128-f80:128-n8:16:32:64-S128"
target triple = "x86_64-pc-linux-gnu"

@.str.12 = private unnamed_addr constant [3 x i8] c"==\00", align 1
@.str.46 = private unnamed_addr constant [7 x i8] c"BIGNUM\00", align 1

; Function Attrs: nounwind uwtable
define i32 @test_BN_eq_word(ptr noundef %0, i32 noundef %1, ptr noundef %2, ptr noundef %3, ptr noundef %4, i64 noundef %5) #0 {
  %7 = alloca i32, align 4
  %8 = alloca ptr, align 8
  %9 = alloca i32, align 4
  %10 = alloca ptr, align 8
  %11 = alloca ptr, align 8
  %12 = alloca ptr, align 8
  %13 = alloca i64, align 8
  %14 = alloca ptr, align 8
  %15 = alloca i32, align 4
  store ptr %0, ptr %8, align 8, !tbaa !3
  store i32 %1, ptr %9, align 4, !tbaa !8
  store ptr %2, ptr %10, align 8, !tbaa !3
  store ptr %3, ptr %11, align 8, !tbaa !3
  store ptr %4, ptr %12, align 8, !tbaa !18
  store i64 %5, ptr %13, align 8, !tbaa !13
  call void @llvm.lifetime.start.p0(i64 8, ptr %14) #7
  %16 = load ptr, ptr %12, align 8, !tbaa !18
  %17 = icmp ne ptr %16, null
  br i1 %17, label %18, label %24

18:                                               ; preds = %6
  %19 = load ptr, ptr %12, align 8, !tbaa !18
  %20 = load i64, ptr %13, align 8, !tbaa !13
  %21 = call i32 @BN_is_word(ptr noundef %19, i64 noundef %20)
  %22 = icmp ne i32 %21, 0
  br i1 %22, label %23, label %24

23:                                               ; preds = %18
  store i32 1, ptr %7, align 4
  store i32 1, ptr %15, align 4
  br label %39

24:                                               ; preds = %18, %6
  %25 = call ptr @BN_new()
  store ptr %25, ptr %14, align 8, !tbaa !18
  %26 = icmp ne ptr %25, null
  br i1 %26, label %27, label %31

27:                                               ; preds = %24
  %28 = load ptr, ptr %14, align 8, !tbaa !18
  %29 = load i64, ptr %13, align 8, !tbaa !13
  %30 = call i32 @BN_set_word(ptr noundef %28, i64 noundef %29)
  br label %31

31:                                               ; preds = %27, %24
  %32 = load ptr, ptr %8, align 8, !tbaa !3
  %33 = load i32, ptr %9, align 4, !tbaa !8
  %34 = load ptr, ptr %10, align 8, !tbaa !3
  %35 = load ptr, ptr %11, align 8, !tbaa !3
  %36 = load ptr, ptr %12, align 8, !tbaa !18
  %37 = load ptr, ptr %14, align 8, !tbaa !18
  call void @test_fail_bignum_message(ptr noundef null, ptr noundef %32, i32 noundef %33, ptr noundef @.str.46, ptr noundef %34, ptr noundef %35, ptr noundef @.str.12, ptr noundef %36, ptr noundef %37)
  %38 = load ptr, ptr %14, align 8, !tbaa !18
  call void @BN_free(ptr noundef %38)
  store i32 0, ptr %7, align 4
  store i32 1, ptr %15, align 4
  br label %39

39:                                               ; preds = %31, %23
  call void @llvm.lifetime.end.p0(i64 8, ptr %14) #7
  %40 = load i32, ptr %7, align 4
  ret i32 %40
}