; Function Attrs: nounwind uwtable
define range(i32 0, 2) i32 @test_BN_eq_word(ptr noundef %0, i32 noundef %1, ptr noundef %2, ptr noundef %3, ptr noundef %4, i64 noundef %5) local_unnamed_addr #0 {
  %.not = icmp eq ptr %4, null
  br i1 %.not, label %9, label %7

7:                                                ; preds = %6
  %8 = tail call i32 @BN_is_word(ptr noundef nonnull %4, i64 noundef %5) #8
  %.not14 = icmp eq i32 %8, 0
  br i1 %.not14, label %9, label %14

9:                                                ; preds = %7, %6
  %10 = tail call ptr @BN_new() #8
  %.not15 = icmp eq ptr %10, null
  br i1 %.not15, label %13, label %11

11:                                               ; preds = %9
  %12 = tail call i32 @BN_set_word(ptr noundef nonnull %10, i64 noundef %5) #8
  br label %13

13:                                               ; preds = %11, %9
  tail call void @test_fail_bignum_message(ptr noundef null, ptr noundef %0, i32 noundef %1, ptr noundef nonnull @.str.46, ptr noundef %2, ptr noundef %3, ptr noundef nonnull @.str.12, ptr noundef %4, ptr noundef %10) #8
  tail call void @BN_free(ptr noundef %10) #8
  br label %14

14:                                               ; preds = %7, %13
  %.0 = phi i32 [ 0, %13 ], [ 1, %7 ]
  ret i32 %.0
}